target datalayout = "e-m:e-p270:32:32-p271:32:32-p272:64:64-i64:64-i128:128-f80:128-n8:16:32:64-S128"
target triple = "x86_64-pc-linux-gnu"

%struct.Vec_Int_t_ = type { i32, i32, ptr }
%struct.Prs_Ntk_t_ = type { i32, i8, ptr, ptr, ptr, %struct.Vec_Int_t_, %struct.Vec_Int_t_, %struct.Vec_Int_t_, %struct.Vec_Int_t_, %struct.Vec_Int_t_, %struct.Vec_Int_t_, %struct.Vec_Int_t_, %struct.Vec_Int_t_, %struct.Vec_Int_t_, %struct.Vec_Int_t_, %struct.Vec_Int_t_, %struct.Vec_Int_t_, %struct.Vec_Int_t_ }

@Prs_CatSignals.V = internal global %struct.Vec_Int_t_ zeroinitializer, align 8

; Function Attrs: nounwind uwtable
define internal ptr @Vec_IntEntryP(ptr noundef %0, i32 noundef %1) #0 {
  %3 = alloca ptr, align 8
  %4 = alloca i32, align 4
  store ptr %0, ptr %3, align 8
  store i32 %1, ptr %4, align 4
  %5 = load ptr, ptr %3, align 8
  %6 = getelementptr inbounds %struct.Vec_Int_t_, ptr %5, i32 0, i32 2
  %7 = load ptr, ptr %6, align 8
  %8 = load i32, ptr %4, align 4
  %9 = sext i32 %8 to i64
  %10 = getelementptr inbounds i32, ptr %7, i64 %9
  ret ptr %10
}

; Function Attrs: nounwind uwtable
define internal ptr @Prs_CatArray(ptr noundef %0, i32 noundef %1) #0 {
  %3 = alloca ptr, align 8
  %4 = alloca i32, align 4
  store ptr %0, ptr %3, align 8
  store i32 %1, ptr %4, align 4
  %5 = load ptr, ptr %3, align 8
  %6 = getelementptr inbounds %struct.Prs_Ntk_t_, ptr %5, i32 0, i32 15
  %7 = load i32, ptr %4, align 4
  %8 = add nsw i32 %7, 1
  %9 = call ptr @Vec_IntEntryP(ptr noundef %6, i32 noundef %8)
  ret ptr %9
}

; Function Attrs: nounwind uwtable
define internal i32 @Prs_CatSize(ptr noundef %0, i32 noundef %1) #0 {
  %3 = alloca ptr, align 8
  %4 = alloca i32, align 4
  store ptr %0, ptr %3, align 8
  store i32 %1, ptr %4, align 4
  %5 = load ptr, ptr %3, align 8
  %6 = getelementptr inbounds %struct.Prs_Ntk_t_, ptr %5, i32 0, i32 15
  %7 = load i32, ptr %4, align 4
  %8 = call i32 @Vec_IntEntry(ptr noundef %6, i32 noundef %7)
  ret i32 %8
}

; Function Attrs: nounwind uwtable
define internal i32 @Vec_IntEntry(ptr noundef %0, i32 noundef %1) #0 {
  %3 = alloca ptr, align 8
  %4 = alloca i32, align 4
  store ptr %0, ptr %3, align 8
  store i32 %1, ptr %4, align 4
  %5 = load ptr, ptr %3, align 8
  %6 = getelementptr inbounds %struct.Vec_Int_t_, ptr %5, i32 0, i32 2
  %7 = load ptr, ptr %6, align 8
  %8 = load i32, ptr %4, align 4
  %9 = sext i32 %8 to i64
  %10 = getelementptr inbounds i32, ptr %7, i64 %9
  %11 = load i32, ptr %10, align 4
  ret i32 %11
}

; Function Attrs: nounwind uwtable
define internal i32 @Vec_IntSize(ptr noundef %0) #0 {
  %2 = alloca ptr, align 8
  store ptr %0, ptr %2, align 8
  %3 = load ptr, ptr %2, align 8
  %4 = getelementptr inbounds %struct.Vec_Int_t_, ptr %3, i32 0, i32 1
  %5 = load i32, ptr %4, align 4
  ret i32 %5
}

; Function Attrs: nounwind uwtable
define internal ptr @Prs_CatSignals(ptr noundef %0, i32 noundef %1) #0 {
  %3 = alloca ptr, align 8
  %4 = alloca i32, align 4
  store ptr %0, ptr %3, align 8
  store i32 %1, ptr %4, align 4
  %5 = load ptr, ptr %3, align 8
  %6 = load i32, ptr %4, align 4
  %7 = call i32 @Prs_CatSize(ptr noundef %5, i32 noundef %6)
  store i32 %7, ptr @Prs_CatSignals.V, align 8
  %8 = getelementptr inbounds %struct.Vec_Int_t_, ptr @Prs_CatSignals.V, i32 0, i32 1
  store i32 %7, ptr %8, align 4
  %9 = load ptr, ptr %3, align 8
  %10 = load i32, ptr %4, align 4
  %11 = call ptr @Prs_CatArray(ptr noundef %9, i32 noundef %10)
  %12 = getelementptr inbounds %struct.Vec_Int_t_, ptr @Prs_CatSignals.V, i32 0, i32 2
  store ptr %11, ptr %12, align 8
  ret ptr @Prs_CatSignals.V
}

; Function Attrs: nounwind uwtable
define internal i32 @Abc_Var2Lit2(i32 noundef %0, i32 noundef %1) #0 {
  %3 = alloca i32, align 4
  %4 = alloca i32, align 4
  store i32 %0, ptr %3, align 4
  store i32 %1, ptr %4, align 4
  %5 = load i32, ptr %3, align 4
  %6 = shl i32 %5, 2
  %7 = load i32, ptr %4, align 4
  %8 = add nsw i32 %6, %7
  ret i32 %8
}

; Function Attrs: nounwind uwtable
define internal ptr @Prs_NtkConst(ptr noundef %0, i32 noundef %1) #0 {
  %3 = alloca ptr, align 8
  %4 = alloca i32, align 4
  store ptr %0, ptr %3, align 8
  store i32 %1, ptr %4, align 4
  %5 = load ptr, ptr %3, align 8
  %6 = getelementptr inbounds %struct.Prs_Ntk_t_, ptr %5, i32 0, i32 3
  %7 = load ptr, ptr %6, align 8
  %8 = load i32, ptr %4, align 4
  %9 = call ptr @Abc_NamStr(ptr noundef %7, i32 noundef %8)
  ret ptr %9
}

; Function Attrs: nounwind uwtable
define internal i32 @Abc_Lit2Att2(i32 noundef %0) #0 {
  %2 = alloca i32, align 4
  store i32 %0, ptr %2, align 4
  %3 = load i32, ptr %2, align 4
  %4 = and i32 %3, 3
  ret i32 %4
}

; Function Attrs: nounwind uwtable
define internal i32 @Abc_Lit2Var2(i32 noundef %0) #0 {
  %2 = alloca i32, align 4
  store i32 %0, ptr %2, align 4
  %3 = load i32, ptr %2, align 4
  %4 = ashr i32 %3, 2
  ret i32 %4
}

; Function Attrs: nounwind uwtable
define i32 @Prs_CreateBitSignal(ptr noundef %0, i32 noundef %1) #0 {
  %3 = alloca i32, align 4
  %4 = alloca ptr, align 8
  %5 = alloca i32, align 4
  %6 = alloca ptr, align 8
  %7 = alloca i32, align 4
  %8 = alloca i32, align 4
  %9 = alloca i32, align 4
  %10 = alloca i32, align 4
  %11 = alloca i32, align 4
  %12 = alloca i32, align 4
  %13 = alloca i32, align 4
  %14 = alloca ptr, align 8
  store ptr %0, ptr %4, align 8
  store i32 %1, ptr %5, align 4
  store i32 -1, ptr %9, align 4
  %15 = load i32, ptr %5, align 4
  %16 = call i32 @Abc_Lit2Var2(i32 noundef %15)
  store i32 %16, ptr %10, align 4
  %17 = load i32, ptr %5, align 4
  %18 = call i32 @Abc_Lit2Att2(i32 noundef %17)
  store i32 %18, ptr %11, align 4
  %19 = load i32, ptr %11, align 4
  %20 = icmp eq i32 %19, 0
  br i1 %20, label %24, label %21

21:                                               ; preds = %2
  %22 = load i32, ptr %11, align 4
  %23 = icmp eq i32 %22, 1
  br i1 %23, label %24, label %25

24:                                               ; preds = %21, %2
  store i32 -1, ptr %3, align 4
  br label %106

25:                                               ; preds = %21
  %26 = load i32, ptr %11, align 4
  %27 = icmp eq i32 %26, 2
  br i1 %27, label %28, label %65

28:                                               ; preds = %25
  store i32 1, ptr %12, align 4
  store i32 1, ptr %13, align 4
  %29 = load ptr, ptr %4, align 8
  %30 = load i32, ptr %10, align 4
  %31 = call ptr @Prs_NtkConst(ptr noundef %29, i32 noundef %30)
  store ptr %31, ptr %14, align 8
  %32 = load ptr, ptr %14, align 8
  %33 = call ptr @strchr(ptr noundef %32, i32 noundef 39) #11
  %34 = getelementptr inbounds i8, ptr %33, i64 1
  store ptr %34, ptr %14, align 8
  br label %35

35:                                               ; preds = %53, %28
  %36 = load ptr, ptr %14, align 8
  %37 = getelementptr inbounds i8, ptr %36, i32 1
  store ptr %37, ptr %14, align 8
  %38 = load i8, ptr %37, align 1
  %39 = icmp ne i8 %38, 0
  br i1 %39, label %40, label %54

40:                                               ; preds = %35
  %41 = load ptr, ptr %14, align 8
  %42 = load i8, ptr %41, align 1
  %43 = sext i8 %42 to i32
  %44 = icmp eq i32 %43, 48
  br i1 %44, label %45, label %46

45:                                               ; preds = %40
  store i32 0, ptr %13, align 4
  br label %53

46:                                               ; preds = %40
  %47 = load ptr, ptr %14, align 8
  %48 = load i8, ptr %47, align 1
  %49 = sext i8 %48 to i32
  %50 = icmp eq i32 %49, 49
  br i1 %50, label %51, label %52

51:                                               ; preds = %46
  store i32 0, ptr %12, align 4
  br label %52

52:                                               ; preds = %51, %46
  br label %53

53:                                               ; preds = %52, %45
  br label %35, !llvm.loop !24

54:                                               ; preds = %35
  %55 = load i32, ptr %12, align 4
  %56 = icmp ne i32 %55, 0
  br i1 %56, label %57, label %59

57:                                               ; preds = %54
  %58 = call i32 @Abc_Var2Lit2(i32 noundef 1, i32 noundef 2)
  store i32 %58, ptr %3, align 4
  br label %106

59:                                               ; preds = %54
  %60 = load i32, ptr %13, align 4
  %61 = icmp ne i32 %60, 0
  br i1 %61, label %62, label %64

62:                                               ; preds = %59
  %63 = call i32 @Abc_Var2Lit2(i32 noundef 2, i32 noundef 2)
  store i32 %63, ptr %3, align 4
  br label %106

64:                                               ; preds = %59
  store i32 -1, ptr %3, align 4
  br label %106

65:                                               ; preds = %25
  %66 = load ptr, ptr %4, align 8
  %67 = load i32, ptr %10, align 4
  %68 = call ptr @Prs_CatSignals(ptr noundef %66, i32 noundef %67)
  store ptr %68, ptr %6, align 8
  store i32 0, ptr %7, align 4
  br label %69

69:                                               ; preds = %100, %65
  %70 = load i32, ptr %7, align 4
  %71 = load ptr, ptr %6, align 8
  %72 = call i32 @Vec_IntSize(ptr noundef %71)
  %73 = icmp slt i32 %70, %72
  br i1 %73, label %74, label %78

74:                                               ; preds = %69
  %75 = load ptr, ptr %6, align 8
  %76 = load i32, ptr %7, align 4
  %77 = call i32 @Vec_IntEntry(ptr noundef %75, i32 noundef %76)
  store i32 %77, ptr %8, align 4
  br label %78

78:                                               ; preds = %74, %69
  %79 = phi i1 [ false, %69 ], [ true, %74 ]
  br i1 %79, label %80, label %103

80:                                               ; preds = %78
  %81 = load i32, ptr %8, align 4
  %82 = call i32 @Abc_Lit2Var2(i32 noundef %81)
  store i32 %82, ptr %10, align 4
  %83 = load i32, ptr %8, align 4
  %84 = call i32 @Abc_Lit2Att2(i32 noundef %83)
  store i32 %84, ptr %11, align 4
  %85 = load i32, ptr %11, align 4
  %86 = icmp ne i32 %85, 0
  br i1 %86, label %87, label %88

87:                                               ; preds = %80
  store i32 -1, ptr %3, align 4
  br label %106

88:                                               ; preds = %80
  %89 = load i32, ptr %9, align 4
  %90 = icmp eq i32 %89, -1
  br i1 %90, label %91, label %93

91:                                               ; preds = %88
  %92 = load i32, ptr %10, align 4
  store i32 %92, ptr %9, align 4
  br label %99

93:                                               ; preds = %88
  %94 = load i32, ptr %9, align 4
  %95 = load i32, ptr %10, align 4
  %96 = icmp ne i32 %94, %95
  br i1 %96, label %97, label %98

97:                                               ; preds = %93
  store i32 -1, ptr %3, align 4
  br label %106

98:                                               ; preds = %93
  br label %99

99:                                               ; preds = %98, %91
  br label %100

100:                                              ; preds = %99
  %101 = load i32, ptr %7, align 4
  %102 = add nsw i32 %101, 1
  store i32 %102, ptr %7, align 4
  br label %69, !llvm.loop !25

103:                                              ; preds = %78
  %104 = load i32, ptr %9, align 4
  %105 = call i32 @Abc_Var2Lit2(i32 noundef %104, i32 noundef 0)
  store i32 %105, ptr %3, align 4
  br label %106

106:                                              ; preds = %103, %97, %87, %64, %62, %57, %24
  %107 = load i32, ptr %3, align 4
  ret i32 %107
}