; Function Attrs: nounwind uwtable
define range(i32 -2147483648, 2147483645) i32 @Prs_CreateBitSignal(ptr noundef readonly captures(none) %0, i32 noundef %1) local_unnamed_addr #0 {
  %3 = ashr i32 %1, 2
  %4 = and i32 %1, 3
  %or.cond = icmp samesign ult i32 %4, 2
  br i1 %or.cond, label %.loopexit, label %5

5:                                                ; preds = %2
  %6 = icmp eq i32 %4, 2
  br i1 %6, label %7, label %18

7:                                                ; preds = %5
  %8 = getelementptr i8, ptr %0, i64 16
  %.val = load ptr, ptr %8, align 8
  %9 = tail call ptr @Abc_NamStr(ptr noundef %.val, i32 noundef range(i32 -536870912, 536870912) %3) #28
  %10 = tail call ptr @strchr(ptr noundef nonnull dereferenceable(1) %9, i32 noundef 39) #31
  %11 = getelementptr inbounds nuw i8, ptr %10, i64 1
  br label %.outer

.outer:                                           ; preds = %15, %7
  %.not41 = phi i1 [ true, %15 ], [ false, %7 ]
  %.029.ph = phi i32 [ %.029.ph49, %15 ], [ 1, %7 ]
  %.0.ph = phi ptr [ %13, %15 ], [ %11, %7 ]
  br label %.outer48

.outer48:                                         ; preds = %12, %.outer
  %.029.ph49 = phi i32 [ %.029.ph, %.outer ], [ 0, %12 ]
  %.0.ph50 = phi ptr [ %.0.ph, %.outer ], [ %13, %12 ]
  br label %12

12:                                               ; preds = %.outer48, %.fold.split
  %.0 = phi ptr [ %13, %.fold.split ], [ %.0.ph50, %.outer48 ]
  %13 = getelementptr inbounds nuw i8, ptr %.0, i64 1
  %14 = load i8, ptr %13, align 1
  switch i8 %14, label %.fold.split [
    i8 0, label %16
    i8 48, label %.outer48
    i8 49, label %15
  ], !llvm.loop !35

15:                                               ; preds = %12
  br label %.outer, !llvm.loop !35

.fold.split:                                      ; preds = %12
  br label %12, !llvm.loop !35

16:                                               ; preds = %12
  br i1 %.not41, label %17, label %.loopexit

17:                                               ; preds = %16
  %.not42 = icmp eq i32 %.029.ph49, 0
  %spec.select = select i1 %.not42, i32 -1, i32 10
  br label %.loopexit

18:                                               ; preds = %5
  %19 = getelementptr i8, ptr %0, i64 200
  %.val.i = load ptr, ptr %19, align 8
  %20 = sext i32 %3 to i64
  %21 = getelementptr inbounds i32, ptr %.val.i, i64 %20
  %22 = load i32, ptr %21, align 4
  store i32 %22, ptr @Prs_CatSignals.V.1, align 4
  %23 = getelementptr i32, ptr %.val.i, i64 %20
  %24 = getelementptr i8, ptr %23, i64 4
  store ptr %24, ptr @Prs_CatSignals.V.2, align 8
  %25 = icmp sgt i32 %22, 0
  br i1 %25, label %.lr.ph.preheader, label %.loopexit

.lr.ph.preheader:                                 ; preds = %18
  %wide.trip.count = zext nneg i32 %22 to i64
  br label %.lr.ph

.lr.ph:                                           ; preds = %.lr.ph.preheader, %33
  %indvars.iv = phi i64 [ 0, %.lr.ph.preheader ], [ %indvars.iv.next, %33 ]
  %.03246 = phi i32 [ -1, %.lr.ph.preheader ], [ %.133, %33 ]
  %26 = getelementptr inbounds nuw i32, ptr %24, i64 %indvars.iv
  %27 = load i32, ptr %26, align 4
  %28 = ashr i32 %27, 2
  %29 = and i32 %27, 3
  %.not = icmp eq i32 %29, 0
  br i1 %.not, label %30, label %.loopexit

30:                                               ; preds = %.lr.ph
  %31 = icmp eq i32 %.03246, -1
  br i1 %31, label %33, label %32

32:                                               ; preds = %30
  %.not39 = icmp eq i32 %.03246, %28
  br i1 %.not39, label %33, label %.loopexit

33:                                               ; preds = %30, %32
  %.133 = phi i32 [ %.03246, %32 ], [ %28, %30 ]
  %indvars.iv.next = add nuw nsw i64 %indvars.iv, 1
  %exitcond.not = icmp eq i64 %indvars.iv.next, %wide.trip.count
  br i1 %exitcond.not, label %.critedge.loopexit, label %.lr.ph, !llvm.loop !36

.critedge.loopexit:                               ; preds = %33
  %34 = shl nsw i32 %.133, 2
  br label %.loopexit

.loopexit:                                        ; preds = %32, %.lr.ph, %18, %.critedge.loopexit, %17, %16, %2
  %.034 = phi i32 [ -1, %2 ], [ 6, %16 ], [ %spec.select, %17 ], [ -4, %18 ], [ %34, %.critedge.loopexit ], [ -1, %.lr.ph ], [ -1, %32 ]
  ret i32 %.034
}